target datalayout = "e-m:e-p270:32:32-p271:32:32-p272:64:64-i64:64-i128:128-f80:128-n8:16:32:64-S128"
target triple = "x86_64-pc-linux-gnu"

%struct.X509_VERIFY_PARAM_st = type { ptr, i64, i64, i64, i32, i32, i32, ptr, ptr }

; Function Attrs: nounwind uwtable
define hidden i32 @X509_VERIFY_PARAM_set1_policies(ptr noundef %0, ptr noundef %1) #0 {
  %3 = alloca i32, align 4
  %4 = alloca ptr, align 8
  %5 = alloca ptr, align 8
  %6 = alloca i64, align 8
  %7 = alloca ptr, align 8
  %8 = alloca ptr, align 8
  %9 = alloca i32, align 4
  store ptr %0, ptr %4, align 8, !tbaa !6
  store ptr %1, ptr %5, align 8, !tbaa !38
  call void @llvm.lifetime.start.p0(i64 8, ptr %6) #7
  call void @llvm.lifetime.start.p0(i64 8, ptr %7) #7
  call void @llvm.lifetime.start.p0(i64 8, ptr %8) #7
  %10 = load ptr, ptr %4, align 8, !tbaa !6
  %11 = icmp ne ptr %10, null
  br i1 %11, label %13, label %12

12:                                               ; preds = %2
  store i32 0, ptr %3, align 4
  store i32 1, ptr %9, align 4
  br label %70

13:                                               ; preds = %2
  %14 = load ptr, ptr %4, align 8, !tbaa !6
  %15 = getelementptr inbounds nuw %struct.X509_VERIFY_PARAM_st, ptr %14, i32 0, i32 7
  %16 = load ptr, ptr %15, align 8, !tbaa !25
  %17 = icmp ne ptr %16, null
  br i1 %17, label %18, label %22

18:                                               ; preds = %13
  %19 = load ptr, ptr %4, align 8, !tbaa !6
  %20 = getelementptr inbounds nuw %struct.X509_VERIFY_PARAM_st, ptr %19, i32 0, i32 7
  %21 = load ptr, ptr %20, align 8, !tbaa !25
  call void @sk_pop_free(ptr noundef %21, ptr noundef @ASN1_OBJECT_free)
  br label %22

22:                                               ; preds = %18, %13
  %23 = load ptr, ptr %5, align 8, !tbaa !38
  %24 = icmp ne ptr %23, null
  br i1 %24, label %28, label %25

25:                                               ; preds = %22
  %26 = load ptr, ptr %4, align 8, !tbaa !6
  %27 = getelementptr inbounds nuw %struct.X509_VERIFY_PARAM_st, ptr %26, i32 0, i32 7
  store ptr null, ptr %27, align 8, !tbaa !25
  store i32 1, ptr %3, align 4
  store i32 1, ptr %9, align 4
  br label %70

28:                                               ; preds = %22
  %29 = call ptr @sk_new_null()
  %30 = load ptr, ptr %4, align 8, !tbaa !6
  %31 = getelementptr inbounds nuw %struct.X509_VERIFY_PARAM_st, ptr %30, i32 0, i32 7
  store ptr %29, ptr %31, align 8, !tbaa !25
  %32 = load ptr, ptr %4, align 8, !tbaa !6
  %33 = getelementptr inbounds nuw %struct.X509_VERIFY_PARAM_st, ptr %32, i32 0, i32 7
  %34 = load ptr, ptr %33, align 8, !tbaa !25
  %35 = icmp ne ptr %34, null
  br i1 %35, label %37, label %36

36:                                               ; preds = %28
  store i32 0, ptr %3, align 4
  store i32 1, ptr %9, align 4
  br label %70

37:                                               ; preds = %28
  store i64 0, ptr %6, align 8, !tbaa !34
  br label %38

38:                                               ; preds = %62, %37
  %39 = load i64, ptr %6, align 8, !tbaa !34
  %40 = load ptr, ptr %5, align 8, !tbaa !38
  %41 = call i64 @sk_num(ptr noundef %40)
  %42 = icmp ult i64 %39, %41
  br i1 %42, label %43, label %65

43:                                               ; preds = %38
  %44 = load ptr, ptr %5, align 8, !tbaa !38
  %45 = load i64, ptr %6, align 8, !tbaa !34
  %46 = call ptr @sk_value(ptr noundef %44, i64 noundef %45)
  store ptr %46, ptr %7, align 8, !tbaa !39
  %47 = load ptr, ptr %7, align 8, !tbaa !39
  %48 = call ptr @OBJ_dup(ptr noundef %47)
  store ptr %48, ptr %8, align 8, !tbaa !39
  %49 = load ptr, ptr %8, align 8, !tbaa !39
  %50 = icmp ne ptr %49, null
  br i1 %50, label %52, label %51

51:                                               ; preds = %43
  store i32 0, ptr %3, align 4
  store i32 1, ptr %9, align 4
  br label %70

52:                                               ; preds = %43
  %53 = load ptr, ptr %4, align 8, !tbaa !6
  %54 = getelementptr inbounds nuw %struct.X509_VERIFY_PARAM_st, ptr %53, i32 0, i32 7
  %55 = load ptr, ptr %54, align 8, !tbaa !25
  %56 = load ptr, ptr %8, align 8, !tbaa !39
  %57 = call i64 @sk_push(ptr noundef %55, ptr noundef %56)
  %58 = icmp ne i64 %57, 0
  br i1 %58, label %61, label %59

59:                                               ; preds = %52
  %60 = load ptr, ptr %8, align 8, !tbaa !39
  call void @ASN1_OBJECT_free(ptr noundef %60)
  store i32 0, ptr %3, align 4
  store i32 1, ptr %9, align 4
  br label %70

61:                                               ; preds = %52
  br label %62

62:                                               ; preds = %61
  %63 = load i64, ptr %6, align 8, !tbaa !34
  %64 = add i64 %63, 1
  store i64 %64, ptr %6, align 8, !tbaa !34
  br label %38, !llvm.loop !41

65:                                               ; preds = %38
  %66 = load ptr, ptr %4, align 8, !tbaa !6
  %67 = getelementptr inbounds nuw %struct.X509_VERIFY_PARAM_st, ptr %66, i32 0, i32 3
  %68 = load i64, ptr %67, align 8, !tbaa !23
  %69 = or i64 %68, 128
  store i64 %69, ptr %67, align 8, !tbaa !23
  store i32 1, ptr %3, align 4
  store i32 1, ptr %9, align 4
  br label %70

70:                                               ; preds = %65, %59, %51, %36, %25, %12
  call void @llvm.lifetime.end.p0(i64 8, ptr %8) #7
  call void @llvm.lifetime.end.p0(i64 8, ptr %7) #7
  call void @llvm.lifetime.end.p0(i64 8, ptr %6) #7
  %71 = load i32, ptr %3, align 4
  ret i32 %71
}