; Function Attrs: nounwind uwtable
define hidden range(i32 0, 2) i32 @X509_VERIFY_PARAM_set1_policies(ptr noundef captures(address_is_null) %0, ptr noundef %1) local_unnamed_addr #0 {
  %.not = icmp eq ptr %0, null
  br i1 %.not, label %.loopexit, label %3

3:                                                ; preds = %2
  %4 = getelementptr inbounds nuw i8, ptr %0, i64 48
  %5 = load ptr, ptr %4, align 8, !tbaa !18
  %.not23 = icmp eq ptr %5, null
  br i1 %.not23, label %7, label %6

6:                                                ; preds = %3
  tail call void @sk_pop_free(ptr noundef nonnull %5, ptr noundef nonnull @ASN1_OBJECT_free) #16
  br label %7

7:                                                ; preds = %6, %3
  %.not24 = icmp eq ptr %1, null
  br i1 %.not24, label %8, label %9

8:                                                ; preds = %7
  store ptr null, ptr %4, align 8, !tbaa !18
  br label %.loopexit

9:                                                ; preds = %7
  %10 = tail call ptr @sk_new_null() #16
  store ptr %10, ptr %4, align 8, !tbaa !18
  %.not25 = icmp eq ptr %10, null
  br i1 %.not25, label %.loopexit, label %.preheader

.preheader:                                       ; preds = %9
  %11 = tail call i64 @sk_num(ptr noundef nonnull %1) #16
  %.not30 = icmp eq i64 %11, 0
  br i1 %.not30, label %._crit_edge, label %.lr.ph

12:                                               ; preds = %18
  %13 = add nuw i64 %.01829, 1
  %14 = tail call i64 @sk_num(ptr noundef nonnull %1) #16
  %15 = icmp ult i64 %13, %14
  br i1 %15, label %.lr.ph, label %._crit_edge, !llvm.loop !35

.lr.ph:                                           ; preds = %.preheader, %12
  %.01829 = phi i64 [ %13, %12 ], [ 0, %.preheader ]
  %16 = tail call ptr @sk_value(ptr noundef nonnull %1, i64 noundef %.01829) #16
  %17 = tail call ptr @OBJ_dup(ptr noundef %16) #16
  %.not26 = icmp eq ptr %17, null
  br i1 %.not26, label %.loopexit, label %18

18:                                               ; preds = %.lr.ph
  %19 = load ptr, ptr %4, align 8, !tbaa !18
  %20 = tail call i64 @sk_push(ptr noundef %19, ptr noundef nonnull %17) #16
  %.not27 = icmp eq i64 %20, 0
  br i1 %.not27, label %21, label %12

21:                                               ; preds = %18
  tail call void @ASN1_OBJECT_free(ptr noundef nonnull %17) #16
  br label %.loopexit

._crit_edge:                                      ; preds = %12, %.preheader
  %22 = getelementptr inbounds nuw i8, ptr %0, i64 24
  %23 = load i64, ptr %22, align 8, !tbaa !28
  %24 = or i64 %23, 128
  store i64 %24, ptr %22, align 8, !tbaa !28
  br label %.loopexit

.loopexit:                                        ; preds = %.lr.ph, %9, %2, %._crit_edge, %21, %8
  %.0 = phi i32 [ 0, %21 ], [ 1, %._crit_edge ], [ 1, %8 ], [ 0, %2 ], [ 0, %9 ], [ 0, %.lr.ph ]
  ret i32 %.0
}